ARM GAS  /tmp/ccO2qreF.s 			page 1


   1              		.cpu cortex-m4
   2              		.eabi_attribute 27, 1
   3              		.eabi_attribute 28, 1
   4              		.eabi_attribute 20, 1
   5              		.eabi_attribute 21, 1
   6              		.eabi_attribute 23, 3
   7              		.eabi_attribute 24, 1
   8              		.eabi_attribute 25, 1
   9              		.eabi_attribute 26, 1
  10              		.eabi_attribute 30, 2
  11              		.eabi_attribute 34, 1
  12              		.eabi_attribute 18, 4
  13              		.file	"usart.c"
  14              		.text
  15              	.Ltext0:
  16              		.cfi_sections	.debug_frame
  17              		.section	.text.MX_USART2_UART_Init,"ax",%progbits
  18              		.align	1
  19              		.p2align 2,,3
  20              		.global	MX_USART2_UART_Init
  21              		.arch armv7e-m
  22              		.syntax unified
  23              		.thumb
  24              		.thumb_func
  25              		.fpu fpv4-sp-d16
  27              	MX_USART2_UART_Init:
  28              	.LFB126:
  29              		.file 1 "Src/usart.c"
   1:Src/usart.c   **** /**
   2:Src/usart.c   ****   ******************************************************************************
   3:Src/usart.c   ****   * File Name          : USART.c
   4:Src/usart.c   ****   * Description        : This file provides code for the configuration
   5:Src/usart.c   ****   *                      of the USART instances.
   6:Src/usart.c   ****   ******************************************************************************
   7:Src/usart.c   ****   ** This notice applies to any and all portions of this file
   8:Src/usart.c   ****   * that are not between comment pairs USER CODE BEGIN and
   9:Src/usart.c   ****   * USER CODE END. Other portions of this file, whether 
  10:Src/usart.c   ****   * inserted by the user or by software development tools
  11:Src/usart.c   ****   * are owned by their respective copyright owners.
  12:Src/usart.c   ****   *
  13:Src/usart.c   ****   * COPYRIGHT(c) 2019 STMicroelectronics
  14:Src/usart.c   ****   *
  15:Src/usart.c   ****   * Redistribution and use in source and binary forms, with or without modification,
  16:Src/usart.c   ****   * are permitted provided that the following conditions are met:
  17:Src/usart.c   ****   *   1. Redistributions of source code must retain the above copyright notice,
  18:Src/usart.c   ****   *      this list of conditions and the following disclaimer.
  19:Src/usart.c   ****   *   2. Redistributions in binary form must reproduce the above copyright notice,
  20:Src/usart.c   ****   *      this list of conditions and the following disclaimer in the documentation
  21:Src/usart.c   ****   *      and/or other materials provided with the distribution.
  22:Src/usart.c   ****   *   3. Neither the name of STMicroelectronics nor the names of its contributors
  23:Src/usart.c   ****   *      may be used to endorse or promote products derived from this software
  24:Src/usart.c   ****   *      without specific prior written permission.
  25:Src/usart.c   ****   *
  26:Src/usart.c   ****   * THIS SOFTWARE IS PROVIDED BY THE COPYRIGHT HOLDERS AND CONTRIBUTORS "AS IS"
  27:Src/usart.c   ****   * AND ANY EXPRESS OR IMPLIED WARRANTIES, INCLUDING, BUT NOT LIMITED TO, THE
  28:Src/usart.c   ****   * IMPLIED WARRANTIES OF MERCHANTABILITY AND FITNESS FOR A PARTICULAR PURPOSE ARE
  29:Src/usart.c   ****   * DISCLAIMED. IN NO EVENT SHALL THE COPYRIGHT HOLDER OR CONTRIBUTORS BE LIABLE
ARM GAS  /tmp/ccO2qreF.s 			page 2


  30:Src/usart.c   ****   * FOR ANY DIRECT, INDIRECT, INCIDENTAL, SPECIAL, EXEMPLARY, OR CONSEQUENTIAL
  31:Src/usart.c   ****   * DAMAGES (INCLUDING, BUT NOT LIMITED TO, PROCUREMENT OF SUBSTITUTE GOODS OR
  32:Src/usart.c   ****   * SERVICES; LOSS OF USE, DATA, OR PROFITS; OR BUSINESS INTERRUPTION) HOWEVER
  33:Src/usart.c   ****   * CAUSED AND ON ANY THEORY OF LIABILITY, WHETHER IN CONTRACT, STRICT LIABILITY,
  34:Src/usart.c   ****   * OR TORT (INCLUDING NEGLIGENCE OR OTHERWISE) ARISING IN ANY WAY OUT OF THE USE
  35:Src/usart.c   ****   * OF THIS SOFTWARE, EVEN IF ADVISED OF THE POSSIBILITY OF SUCH DAMAGE.
  36:Src/usart.c   ****   *
  37:Src/usart.c   ****   ******************************************************************************
  38:Src/usart.c   ****   */
  39:Src/usart.c   **** 
  40:Src/usart.c   **** /* Includes ------------------------------------------------------------------*/
  41:Src/usart.c   **** #include "usart.h"
  42:Src/usart.c   **** 
  43:Src/usart.c   **** /* USER CODE BEGIN 0 */
  44:Src/usart.c   **** 
  45:Src/usart.c   **** /* USER CODE END 0 */
  46:Src/usart.c   **** 
  47:Src/usart.c   **** UART_HandleTypeDef huart2;
  48:Src/usart.c   **** 
  49:Src/usart.c   **** /* USART2 init function */
  50:Src/usart.c   **** 
  51:Src/usart.c   **** void MX_USART2_UART_Init(void)
  52:Src/usart.c   **** {
  30              		.loc 1 52 1 view -0
  31              		.cfi_startproc
  32              		@ args = 0, pretend = 0, frame = 0
  33              		@ frame_needed = 0, uses_anonymous_args = 0
  53:Src/usart.c   **** 
  54:Src/usart.c   ****   huart2.Instance = USART2;
  34              		.loc 1 54 3 view .LVU1
  35              		.loc 1 54 19 is_stmt 0 view .LVU2
  36 0000 0B4B     		ldr	r3, .L6
  37 0002 0C4A     		ldr	r2, .L6+4
  52:Src/usart.c   **** 
  38              		.loc 1 52 1 view .LVU3
  39 0004 10B5     		push	{r4, lr}
  40              	.LCFI0:
  41              		.cfi_def_cfa_offset 8
  42              		.cfi_offset 4, -8
  43              		.cfi_offset 14, -4
  55:Src/usart.c   ****   huart2.Init.BaudRate = 115200;
  56:Src/usart.c   ****   huart2.Init.WordLength = UART_WORDLENGTH_8B;
  57:Src/usart.c   ****   huart2.Init.StopBits = UART_STOPBITS_1;
  58:Src/usart.c   ****   huart2.Init.Parity = UART_PARITY_NONE;
  59:Src/usart.c   ****   huart2.Init.Mode = UART_MODE_TX_RX;
  44              		.loc 1 59 20 view .LVU4
  45 0006 0C21     		movs	r1, #12
  54:Src/usart.c   ****   huart2.Init.BaudRate = 115200;
  46              		.loc 1 54 19 view .LVU5
  47 0008 1A60     		str	r2, [r3]
  55:Src/usart.c   ****   huart2.Init.BaudRate = 115200;
  48              		.loc 1 55 3 is_stmt 1 view .LVU6
  55:Src/usart.c   ****   huart2.Init.BaudRate = 115200;
  49              		.loc 1 55 24 is_stmt 0 view .LVU7
  50 000a 4FF4E134 		mov	r4, #115200
  56:Src/usart.c   ****   huart2.Init.StopBits = UART_STOPBITS_1;
  51              		.loc 1 56 26 view .LVU8
ARM GAS  /tmp/ccO2qreF.s 			page 3


  52 000e 0022     		movs	r2, #0
  60:Src/usart.c   ****   huart2.Init.HwFlowCtl = UART_HWCONTROL_NONE;
  61:Src/usart.c   ****   huart2.Init.OverSampling = UART_OVERSAMPLING_16;
  62:Src/usart.c   ****   if (HAL_UART_Init(&huart2) != HAL_OK)
  53              		.loc 1 62 7 view .LVU9
  54 0010 1846     		mov	r0, r3
  55:Src/usart.c   ****   huart2.Init.WordLength = UART_WORDLENGTH_8B;
  55              		.loc 1 55 24 view .LVU10
  56 0012 5C60     		str	r4, [r3, #4]
  56:Src/usart.c   ****   huart2.Init.StopBits = UART_STOPBITS_1;
  57              		.loc 1 56 3 is_stmt 1 view .LVU11
  59:Src/usart.c   ****   huart2.Init.HwFlowCtl = UART_HWCONTROL_NONE;
  58              		.loc 1 59 20 is_stmt 0 view .LVU12
  59 0014 5961     		str	r1, [r3, #20]
  57:Src/usart.c   ****   huart2.Init.Parity = UART_PARITY_NONE;
  60              		.loc 1 57 24 view .LVU13
  61 0016 C3E90222 		strd	r2, r2, [r3, #8]
  58:Src/usart.c   ****   huart2.Init.Mode = UART_MODE_TX_RX;
  62              		.loc 1 58 3 is_stmt 1 view .LVU14
  58:Src/usart.c   ****   huart2.Init.Mode = UART_MODE_TX_RX;
  63              		.loc 1 58 22 is_stmt 0 view .LVU15
  64 001a 1A61     		str	r2, [r3, #16]
  59:Src/usart.c   ****   huart2.Init.HwFlowCtl = UART_HWCONTROL_NONE;
  65              		.loc 1 59 3 is_stmt 1 view .LVU16
  60:Src/usart.c   ****   huart2.Init.OverSampling = UART_OVERSAMPLING_16;
  66              		.loc 1 60 3 view .LVU17
  61:Src/usart.c   ****   if (HAL_UART_Init(&huart2) != HAL_OK)
  67              		.loc 1 61 28 is_stmt 0 view .LVU18
  68 001c C3E90622 		strd	r2, r2, [r3, #24]
  69              		.loc 1 62 3 is_stmt 1 view .LVU19
  70              		.loc 1 62 7 is_stmt 0 view .LVU20
  71 0020 FFF7FEFF 		bl	HAL_UART_Init
  72              	.LVL0:
  73              		.loc 1 62 6 view .LVU21
  74 0024 00B9     		cbnz	r0, .L5
  63:Src/usart.c   ****   {
  64:Src/usart.c   ****     Error_Handler();
  65:Src/usart.c   ****   }
  66:Src/usart.c   **** 
  67:Src/usart.c   **** }
  75              		.loc 1 67 1 view .LVU22
  76 0026 10BD     		pop	{r4, pc}
  77              	.L5:
  64:Src/usart.c   ****   }
  78              		.loc 1 64 5 is_stmt 1 view .LVU23
  79              		.loc 1 67 1 is_stmt 0 view .LVU24
  80 0028 BDE81040 		pop	{r4, lr}
  81              	.LCFI1:
  82              		.cfi_restore 14
  83              		.cfi_restore 4
  84              		.cfi_def_cfa_offset 0
  64:Src/usart.c   ****   }
  85              		.loc 1 64 5 view .LVU25
  86 002c FFF7FEBF 		b	Error_Handler
  87              	.LVL1:
  88              	.L7:
  89              		.align	2
ARM GAS  /tmp/ccO2qreF.s 			page 4


  90              	.L6:
  91 0030 00000000 		.word	huart2
  92 0034 00440040 		.word	1073759232
  93              		.cfi_endproc
  94              	.LFE126:
  96              		.section	.text.HAL_UART_MspInit,"ax",%progbits
  97              		.align	1
  98              		.p2align 2,,3
  99              		.global	HAL_UART_MspInit
 100              		.syntax unified
 101              		.thumb
 102              		.thumb_func
 103              		.fpu fpv4-sp-d16
 105              	HAL_UART_MspInit:
 106              	.LVL2:
 107              	.LFB127:
  68:Src/usart.c   **** 
  69:Src/usart.c   **** void HAL_UART_MspInit(UART_HandleTypeDef* uartHandle)
  70:Src/usart.c   **** {
 108              		.loc 1 70 1 is_stmt 1 view -0
 109              		.cfi_startproc
 110              		@ args = 0, pretend = 0, frame = 32
 111              		@ frame_needed = 0, uses_anonymous_args = 0
  71:Src/usart.c   **** 
  72:Src/usart.c   ****   GPIO_InitTypeDef GPIO_InitStruct = {0};
 112              		.loc 1 72 3 view .LVU27
  70:Src/usart.c   **** 
 113              		.loc 1 70 1 is_stmt 0 view .LVU28
 114 0000 30B5     		push	{r4, r5, lr}
 115              	.LCFI2:
 116              		.cfi_def_cfa_offset 12
 117              		.cfi_offset 4, -12
 118              		.cfi_offset 5, -8
 119              		.cfi_offset 14, -4
  73:Src/usart.c   ****   if(uartHandle->Instance==USART2)
 120              		.loc 1 73 5 view .LVU29
 121 0002 0168     		ldr	r1, [r0]
 122 0004 164A     		ldr	r2, .L12
  70:Src/usart.c   **** 
 123              		.loc 1 70 1 view .LVU30
 124 0006 89B0     		sub	sp, sp, #36
 125              	.LCFI3:
 126              		.cfi_def_cfa_offset 48
  72:Src/usart.c   ****   if(uartHandle->Instance==USART2)
 127              		.loc 1 72 20 view .LVU31
 128 0008 0023     		movs	r3, #0
 129              		.loc 1 73 5 view .LVU32
 130 000a 9142     		cmp	r1, r2
  72:Src/usart.c   ****   if(uartHandle->Instance==USART2)
 131              		.loc 1 72 20 view .LVU33
 132 000c CDE90333 		strd	r3, r3, [sp, #12]
 133 0010 CDE90533 		strd	r3, r3, [sp, #20]
 134 0014 0793     		str	r3, [sp, #28]
 135              		.loc 1 73 3 is_stmt 1 view .LVU34
 136              		.loc 1 73 5 is_stmt 0 view .LVU35
 137 0016 01D0     		beq	.L11
  74:Src/usart.c   ****   {
ARM GAS  /tmp/ccO2qreF.s 			page 5


  75:Src/usart.c   ****   /* USER CODE BEGIN USART2_MspInit 0 */
  76:Src/usart.c   **** 
  77:Src/usart.c   ****   /* USER CODE END USART2_MspInit 0 */
  78:Src/usart.c   ****     /* USART2 clock enable */
  79:Src/usart.c   ****     __HAL_RCC_USART2_CLK_ENABLE();
  80:Src/usart.c   ****   
  81:Src/usart.c   ****     __HAL_RCC_GPIOA_CLK_ENABLE();
  82:Src/usart.c   ****     /**USART2 GPIO Configuration    
  83:Src/usart.c   ****     PA2     ------> USART2_TX
  84:Src/usart.c   ****     PA3     ------> USART2_RX 
  85:Src/usart.c   ****     */
  86:Src/usart.c   ****     GPIO_InitStruct.Pin = USART_TX_Pin|USART_RX_Pin;
  87:Src/usart.c   ****     GPIO_InitStruct.Mode = GPIO_MODE_AF_PP;
  88:Src/usart.c   ****     GPIO_InitStruct.Pull = GPIO_NOPULL;
  89:Src/usart.c   ****     GPIO_InitStruct.Speed = GPIO_SPEED_FREQ_LOW;
  90:Src/usart.c   ****     GPIO_InitStruct.Alternate = GPIO_AF7_USART2;
  91:Src/usart.c   ****     HAL_GPIO_Init(GPIOA, &GPIO_InitStruct);
  92:Src/usart.c   **** 
  93:Src/usart.c   ****   /* USER CODE BEGIN USART2_MspInit 1 */
  94:Src/usart.c   **** 
  95:Src/usart.c   ****   /* USER CODE END USART2_MspInit 1 */
  96:Src/usart.c   ****   }
  97:Src/usart.c   **** }
 138              		.loc 1 97 1 view .LVU36
 139 0018 09B0     		add	sp, sp, #36
 140              	.LCFI4:
 141              		.cfi_remember_state
 142              		.cfi_def_cfa_offset 12
 143              		@ sp needed
 144 001a 30BD     		pop	{r4, r5, pc}
 145              	.L11:
 146              	.LCFI5:
 147              		.cfi_restore_state
  79:Src/usart.c   ****   
 148              		.loc 1 79 5 is_stmt 1 view .LVU37
 149              	.LBB2:
  79:Src/usart.c   ****   
 150              		.loc 1 79 5 view .LVU38
 151 001c 02F5FA32 		add	r2, r2, #128000
 152 0020 0193     		str	r3, [sp, #4]
  79:Src/usart.c   ****   
 153              		.loc 1 79 5 view .LVU39
 154 0022 116C     		ldr	r1, [r2, #64]
 155              	.LBE2:
  91:Src/usart.c   **** 
 156              		.loc 1 91 5 is_stmt 0 view .LVU40
 157 0024 0F48     		ldr	r0, .L12+4
 158              	.LVL3:
 159              	.LBB3:
  79:Src/usart.c   ****   
 160              		.loc 1 79 5 view .LVU41
 161 0026 41F40031 		orr	r1, r1, #131072
 162 002a 1164     		str	r1, [r2, #64]
  79:Src/usart.c   ****   
 163              		.loc 1 79 5 is_stmt 1 view .LVU42
 164 002c 116C     		ldr	r1, [r2, #64]
 165 002e 01F40031 		and	r1, r1, #131072
ARM GAS  /tmp/ccO2qreF.s 			page 6


 166 0032 0191     		str	r1, [sp, #4]
  79:Src/usart.c   ****   
 167              		.loc 1 79 5 view .LVU43
 168 0034 0199     		ldr	r1, [sp, #4]
 169              	.LBE3:
  81:Src/usart.c   ****     /**USART2 GPIO Configuration    
 170              		.loc 1 81 5 view .LVU44
 171              	.LBB4:
  81:Src/usart.c   ****     /**USART2 GPIO Configuration    
 172              		.loc 1 81 5 view .LVU45
 173 0036 0293     		str	r3, [sp, #8]
  81:Src/usart.c   ****     /**USART2 GPIO Configuration    
 174              		.loc 1 81 5 view .LVU46
 175 0038 136B     		ldr	r3, [r2, #48]
 176 003a 43F00103 		orr	r3, r3, #1
 177 003e 1363     		str	r3, [r2, #48]
  81:Src/usart.c   ****     /**USART2 GPIO Configuration    
 178              		.loc 1 81 5 view .LVU47
 179 0040 136B     		ldr	r3, [r2, #48]
 180 0042 03F00103 		and	r3, r3, #1
 181 0046 0293     		str	r3, [sp, #8]
  81:Src/usart.c   ****     /**USART2 GPIO Configuration    
 182              		.loc 1 81 5 view .LVU48
 183              	.LBE4:
  87:Src/usart.c   ****     GPIO_InitStruct.Pull = GPIO_NOPULL;
 184              		.loc 1 87 26 is_stmt 0 view .LVU49
 185 0048 0222     		movs	r2, #2
  90:Src/usart.c   ****     HAL_GPIO_Init(GPIOA, &GPIO_InitStruct);
 186              		.loc 1 90 31 view .LVU50
 187 004a 0723     		movs	r3, #7
  91:Src/usart.c   **** 
 188              		.loc 1 91 5 view .LVU51
 189 004c 03A9     		add	r1, sp, #12
  86:Src/usart.c   ****     GPIO_InitStruct.Mode = GPIO_MODE_AF_PP;
 190              		.loc 1 86 25 view .LVU52
 191 004e 0C24     		movs	r4, #12
 192              	.LBB5:
  81:Src/usart.c   ****     /**USART2 GPIO Configuration    
 193              		.loc 1 81 5 view .LVU53
 194 0050 029D     		ldr	r5, [sp, #8]
 195              	.LBE5:
  86:Src/usart.c   ****     GPIO_InitStruct.Mode = GPIO_MODE_AF_PP;
 196              		.loc 1 86 5 is_stmt 1 view .LVU54
  90:Src/usart.c   ****     HAL_GPIO_Init(GPIOA, &GPIO_InitStruct);
 197              		.loc 1 90 31 is_stmt 0 view .LVU55
 198 0052 0793     		str	r3, [sp, #28]
  87:Src/usart.c   ****     GPIO_InitStruct.Pull = GPIO_NOPULL;
 199              		.loc 1 87 26 view .LVU56
 200 0054 CDE90342 		strd	r4, r2, [sp, #12]
  88:Src/usart.c   ****     GPIO_InitStruct.Speed = GPIO_SPEED_FREQ_LOW;
 201              		.loc 1 88 5 is_stmt 1 view .LVU57
  89:Src/usart.c   ****     GPIO_InitStruct.Alternate = GPIO_AF7_USART2;
 202              		.loc 1 89 5 view .LVU58
  90:Src/usart.c   ****     HAL_GPIO_Init(GPIOA, &GPIO_InitStruct);
 203              		.loc 1 90 5 view .LVU59
  91:Src/usart.c   **** 
 204              		.loc 1 91 5 view .LVU60
ARM GAS  /tmp/ccO2qreF.s 			page 7


 205 0058 FFF7FEFF 		bl	HAL_GPIO_Init
 206              	.LVL4:
 207              		.loc 1 97 1 is_stmt 0 view .LVU61
 208 005c 09B0     		add	sp, sp, #36
 209              	.LCFI6:
 210              		.cfi_def_cfa_offset 12
 211              		@ sp needed
 212 005e 30BD     		pop	{r4, r5, pc}
 213              	.L13:
 214              		.align	2
 215              	.L12:
 216 0060 00440040 		.word	1073759232
 217 0064 00000240 		.word	1073872896
 218              		.cfi_endproc
 219              	.LFE127:
 221              		.section	.text.HAL_UART_MspDeInit,"ax",%progbits
 222              		.align	1
 223              		.p2align 2,,3
 224              		.global	HAL_UART_MspDeInit
 225              		.syntax unified
 226              		.thumb
 227              		.thumb_func
 228              		.fpu fpv4-sp-d16
 230              	HAL_UART_MspDeInit:
 231              	.LVL5:
 232              	.LFB128:
  98:Src/usart.c   **** 
  99:Src/usart.c   **** void HAL_UART_MspDeInit(UART_HandleTypeDef* uartHandle)
 100:Src/usart.c   **** {
 233              		.loc 1 100 1 is_stmt 1 view -0
 234              		.cfi_startproc
 235              		@ args = 0, pretend = 0, frame = 0
 236              		@ frame_needed = 0, uses_anonymous_args = 0
 237              		@ link register save eliminated.
 101:Src/usart.c   **** 
 102:Src/usart.c   ****   if(uartHandle->Instance==USART2)
 238              		.loc 1 102 3 view .LVU63
 239              		.loc 1 102 5 is_stmt 0 view .LVU64
 240 0000 0268     		ldr	r2, [r0]
 241 0002 064B     		ldr	r3, .L17
 242 0004 9A42     		cmp	r2, r3
 243 0006 00D0     		beq	.L16
 103:Src/usart.c   ****   {
 104:Src/usart.c   ****   /* USER CODE BEGIN USART2_MspDeInit 0 */
 105:Src/usart.c   **** 
 106:Src/usart.c   ****   /* USER CODE END USART2_MspDeInit 0 */
 107:Src/usart.c   ****     /* Peripheral clock disable */
 108:Src/usart.c   ****     __HAL_RCC_USART2_CLK_DISABLE();
 109:Src/usart.c   ****   
 110:Src/usart.c   ****     /**USART2 GPIO Configuration    
 111:Src/usart.c   ****     PA2     ------> USART2_TX
 112:Src/usart.c   ****     PA3     ------> USART2_RX 
 113:Src/usart.c   ****     */
 114:Src/usart.c   ****     HAL_GPIO_DeInit(GPIOA, USART_TX_Pin|USART_RX_Pin);
 115:Src/usart.c   **** 
 116:Src/usart.c   ****   /* USER CODE BEGIN USART2_MspDeInit 1 */
 117:Src/usart.c   **** 
ARM GAS  /tmp/ccO2qreF.s 			page 8


 118:Src/usart.c   ****   /* USER CODE END USART2_MspDeInit 1 */
 119:Src/usart.c   ****   }
 120:Src/usart.c   **** } 
 244              		.loc 1 120 1 view .LVU65
 245 0008 7047     		bx	lr
 246              	.L16:
 108:Src/usart.c   ****   
 247              		.loc 1 108 5 is_stmt 1 view .LVU66
 248 000a 054A     		ldr	r2, .L17+4
 114:Src/usart.c   **** 
 249              		.loc 1 114 5 is_stmt 0 view .LVU67
 250 000c 0548     		ldr	r0, .L17+8
 251              	.LVL6:
 108:Src/usart.c   ****   
 252              		.loc 1 108 5 view .LVU68
 253 000e 136C     		ldr	r3, [r2, #64]
 254 0010 23F40033 		bic	r3, r3, #131072
 255 0014 1364     		str	r3, [r2, #64]
 114:Src/usart.c   **** 
 256              		.loc 1 114 5 is_stmt 1 view .LVU69
 257 0016 0C21     		movs	r1, #12
 258 0018 FFF7FEBF 		b	HAL_GPIO_DeInit
 259              	.LVL7:
 260              	.L18:
 261              		.align	2
 262              	.L17:
 263 001c 00440040 		.word	1073759232
 264 0020 00380240 		.word	1073887232
 265 0024 00000240 		.word	1073872896
 266              		.cfi_endproc
 267              	.LFE128:
 269              		.comm	huart2,64,4
 270              		.text
 271              	.Letext0:
 272              		.file 2 "/usr/arm-none-eabi/include/machine/_default_types.h"
 273              		.file 3 "/usr/arm-none-eabi/include/sys/_stdint.h"
 274              		.file 4 "Drivers/CMSIS/Include/core_cm4.h"
 275              		.file 5 "Drivers/CMSIS/Device/ST/STM32F4xx/Include/system_stm32f4xx.h"
 276              		.file 6 "Drivers/CMSIS/Device/ST/STM32F4xx/Include/stm32f401xe.h"
 277              		.file 7 "/usr/arm-none-eabi/include/sys/lock.h"
 278              		.file 8 "/usr/arm-none-eabi/include/sys/_types.h"
 279              		.file 9 "/usr/lib/gcc/arm-none-eabi/8.2.0/include/stddef.h"
 280              		.file 10 "/usr/arm-none-eabi/include/sys/reent.h"
 281              		.file 11 "Drivers/STM32F4xx_HAL_Driver/Inc/stm32f4xx_hal_def.h"
 282              		.file 12 "Drivers/STM32F4xx_HAL_Driver/Inc/stm32f4xx_hal_gpio.h"
 283              		.file 13 "Drivers/STM32F4xx_HAL_Driver/Inc/stm32f4xx_hal_dma.h"
 284              		.file 14 "Drivers/STM32F4xx_HAL_Driver/Inc/stm32f4xx_hal_uart.h"
 285              		.file 15 "Inc/usart.h"
 286              		.file 16 "Inc/main.h"
ARM GAS  /tmp/ccO2qreF.s 			page 9

